; Function Attrs: nounwind uwtable
define void @zend_call_known_instance_method_with_2_params(ptr noundef %0, ptr noundef %1, ptr noundef %2, ptr nocapture noundef readonly %3, ptr nocapture noundef readonly %4) local_unnamed_addr #0 {
  %6 = alloca %struct._zval_struct, align 8
  %7 = alloca %struct._zend_fcall_info, align 8
  %8 = alloca %struct._zend_fcall_info_cache, align 8
  %9 = alloca [2 x %struct._zval_struct], align 16
  %10 = load ptr, ptr %3, align 8
  %11 = getelementptr inbounds i8, ptr %3, i64 8
  %12 = load i32, ptr %11, align 8
  store ptr %10, ptr %9, align 16
  %13 = getelementptr inbounds i8, ptr %9, i64 8
  store i32 %12, ptr %13, align 8
  %14 = getelementptr inbounds i8, ptr %9, i64 16
  %15 = load ptr, ptr %4, align 8
  %16 = getelementptr inbounds i8, ptr %4, i64 8
  %17 = load i32, ptr %16, align 8
  store ptr %15, ptr %14, align 16
  %18 = getelementptr inbounds i8, ptr %9, i64 24
  store i32 %17, ptr %18, align 8
  %19 = getelementptr inbounds i8, ptr %1, i64 16
  %20 = load ptr, ptr %19, align 8
  call void @llvm.lifetime.start.p0(i64 16, ptr nonnull %6)
  call void @llvm.lifetime.start.p0(i64 64, ptr nonnull %7)
  call void @llvm.lifetime.start.p0(i64 40, ptr nonnull %8)
  %21 = icmp ne ptr %0, null
  tail call void @llvm.assume(i1 %21)
  store i64 64, ptr %7, align 8
  %22 = getelementptr inbounds i8, ptr %7, i64 40
  store ptr %1, ptr %22, align 8
  %.not.i = icmp eq ptr %2, null
  %23 = select i1 %.not.i, ptr %6, ptr %2
  %24 = getelementptr inbounds i8, ptr %7, i64 24
  store ptr %23, ptr %24, align 8
  %25 = getelementptr inbounds i8, ptr %7, i64 48
  store i32 2, ptr %25, align 8
  %26 = getelementptr inbounds i8, ptr %7, i64 32
  store ptr %9, ptr %26, align 8
  %27 = getelementptr inbounds i8, ptr %7, i64 56
  store ptr null, ptr %27, align 8
  %28 = getelementptr inbounds i8, ptr %7, i64 16
  store i32 0, ptr %28, align 8
  store ptr %0, ptr %8, align 8
  %29 = getelementptr inbounds i8, ptr %8, i64 24
  store ptr %1, ptr %29, align 8
  %30 = getelementptr inbounds i8, ptr %8, i64 16
  store ptr %20, ptr %30, align 8
  %31 = call i32 @zend_call_function(ptr noundef nonnull %7, ptr noundef nonnull %8), !range !4
  %32 = icmp ne i32 %31, -1
  %33 = load ptr, ptr getelementptr inbounds (%struct._zend_executor_globals, ptr @executor_globals, i64 0, i32 50), align 8
  %34 = icmp ne ptr %33, null
  %or.cond.i = select i1 %32, i1 true, i1 %34
  br i1 %or.cond.i, label %48, label %35

35:                                               ; preds = %5
  %36 = getelementptr inbounds i8, ptr %0, i64 16
  %37 = load ptr, ptr %36, align 8
  %.not16.i = icmp eq ptr %37, null
  br i1 %.not16.i, label %42, label %38

38:                                               ; preds = %35
  %39 = getelementptr inbounds i8, ptr %37, i64 8
  %40 = load ptr, ptr %39, align 8
  %41 = getelementptr inbounds i8, ptr %40, i64 24
  br label %42

42:                                               ; preds = %38, %35
  %43 = phi ptr [ @.str.1, %38 ], [ @.str, %35 ]
  %44 = phi ptr [ %41, %38 ], [ @.str, %35 ]
  %45 = getelementptr inbounds i8, ptr %0, i64 8
  %46 = load ptr, ptr %45, align 8
  %47 = getelementptr inbounds i8, ptr %46, i64 24
  call void (i32, ptr, ...) @zend_error_noreturn(i32 noundef 16, ptr noundef nonnull @.str.8, ptr noundef nonnull %44, ptr noundef nonnull %43, ptr noundef nonnull %47) #27
  unreachable

48:                                               ; preds = %5
  br i1 %.not.i, label %49, label %zend_call_known_function.exit

49:                                               ; preds = %48
  call void @zval_ptr_dtor(ptr noundef nonnull %6) #24
  br label %zend_call_known_function.exit

zend_call_known_function.exit:                    ; preds = %48, %49
  call void @llvm.lifetime.end.p0(i64 16, ptr nonnull %6)
  call void @llvm.lifetime.end.p0(i64 64, ptr nonnull %7)
  call void @llvm.lifetime.end.p0(i64 40, ptr nonnull %8)
  ret void
}